target datalayout = "e-m:e-p270:32:32-p271:32:32-p272:64:64-i64:64-i128:128-f80:128-n8:16:32:64-S128"
target triple = "x86_64-pc-linux-gnu"

@.str.57 = private unnamed_addr constant [43 x i8] c"%s:%i Failed to create ScreenCast session\0A\00", align 1
@__func__.getPipewireFd = private unnamed_addr constant [14 x i8] c"getPipewireFd\00", align 1
@.str.58 = private unnamed_addr constant [32 x i8] c"%s:%i Failed to select sources\0A\00", align 1
@.str.59 = private unnamed_addr constant [41 x i8] c"%s:%i portalScreenCastStart result |%i|\0A\00", align 1
@.str.60 = private unnamed_addr constant [23 x i8] c"%s:%i Failed to start\0A\00", align 1
@.str.61 = private unnamed_addr constant [94 x i8] c"%s:%i The location of the screens has changed, the capture area is outside the allowed area.\0A\00", align 1
@.str.62 = private unnamed_addr constant [33 x i8] c"%s:%i --- portalScreenCastStart\0A\00", align 1
@.str.63 = private unnamed_addr constant [37 x i8] c"%s:%i !!! Failed to get pipewire fd\0A\00", align 1
@.str.64 = private unnamed_addr constant [15 x i8] c"%s:%i pwFd %i\0A\00", align 1

; Function Attrs: nounwind uwtable
define hidden i32 @getPipewireFd(ptr noundef %0, ptr noundef %1, i32 noundef %2) #0 {
  %4 = alloca i32, align 4
  %5 = alloca ptr, align 8
  %6 = alloca ptr, align 8
  %7 = alloca i32, align 4
  %8 = alloca i32, align 4
  %9 = alloca i32, align 4
  store ptr %0, ptr %5, align 8
  store ptr %1, ptr %6, align 8
  store i32 %2, ptr %7, align 4
  %10 = call i32 @portalScreenCastCreateSession()
  %11 = icmp ne i32 %10, 0
  br i1 %11, label %13, label %12

12:                                               ; preds = %3
  call void (ptr, ...) @debug_screencast(ptr noundef @.str.57, ptr noundef @__func__.getPipewireFd, i32 noundef 873, ptr noundef null)
  store i32 -1, ptr %4, align 4
  br label %41

13:                                               ; preds = %3
  %14 = load ptr, ptr %5, align 8
  %15 = call i32 @portalScreenCastSelectSources(ptr noundef %14)
  %16 = icmp ne i32 %15, 0
  br i1 %16, label %18, label %17

17:                                               ; preds = %13
  call void (ptr, ...) @debug_screencast(ptr noundef @.str.58, ptr noundef @__func__.getPipewireFd, i32 noundef 878, ptr noundef null)
  store i32 -1, ptr %4, align 4
  br label %41

18:                                               ; preds = %13
  %19 = load ptr, ptr %5, align 8
  %20 = call i32 @portalScreenCastStart(ptr noundef %19)
  store i32 %20, ptr %8, align 4
  %21 = load i32, ptr %8, align 4
  call void (ptr, ...) @debug_screencast(ptr noundef @.str.59, ptr noundef @__func__.getPipewireFd, i32 noundef 883, i32 noundef %21)
  %22 = load i32, ptr %8, align 4
  %23 = icmp ne i32 %22, 0
  br i1 %23, label %24, label %26

24:                                               ; preds = %18
  call void (ptr, ...) @debug_screencast(ptr noundef @.str.60, ptr noundef @__func__.getPipewireFd, i32 noundef 885, ptr noundef null)
  %25 = load i32, ptr %8, align 4
  store i32 %25, ptr %4, align 4
  br label %41

26:                                               ; preds = %18
  %27 = load ptr, ptr %6, align 8
  %28 = load i32, ptr %7, align 4
  %29 = call i32 @checkCanCaptureAllRequiredScreens(ptr noundef %27, i32 noundef %28)
  %30 = icmp ne i32 %29, 0
  br i1 %30, label %32, label %31

31:                                               ; preds = %26
  call void (ptr, ...) @debug_screencast(ptr noundef @.str.61, ptr noundef @__func__.getPipewireFd, i32 noundef 892, ptr noundef null)
  store i32 -12, ptr %4, align 4
  br label %41

32:                                               ; preds = %26
  br label %33

33:                                               ; preds = %32
  call void (ptr, ...) @debug_screencast(ptr noundef @.str.62, ptr noundef @__func__.getPipewireFd, i32 noundef 897, ptr noundef null)
  %34 = call i32 @portalScreenCastOpenPipewireRemote()
  store i32 %34, ptr %9, align 4
  %35 = load i32, ptr %9, align 4
  %36 = icmp slt i32 %35, 0
  br i1 %36, label %37, label %38

37:                                               ; preds = %33
  call void (ptr, ...) @debug_screencast(ptr noundef @.str.63, ptr noundef @__func__.getPipewireFd, i32 noundef 901, ptr noundef null)
  br label %38

38:                                               ; preds = %37, %33
  %39 = load i32, ptr %9, align 4
  call void (ptr, ...) @debug_screencast(ptr noundef @.str.64, ptr noundef @__func__.getPipewireFd, i32 noundef 904, i32 noundef %39)
  %40 = load i32, ptr %9, align 4
  store i32 %40, ptr %4, align 4
  br label %41

41:                                               ; preds = %38, %31, %24, %17, %12
  %42 = load i32, ptr %4, align 4
  ret i32 %42
}