; Function Attrs: nounwind uwtable
define hidden i32 @getPipewireFd(ptr noundef %0, ptr nocapture noundef readonly %1, i32 noundef %2) local_unnamed_addr #0 {
  %4 = tail call i32 @portalScreenCastCreateSession()
  %.not = icmp eq i32 %4, 0
  br i1 %.not, label %5, label %6

5:                                                ; preds = %3
  tail call void (ptr, ...) @debug_screencast(ptr noundef nonnull @.str.57, ptr noundef nonnull @__func__.getPipewireFd, i32 noundef 873, ptr noundef null) #9
  br label %20

6:                                                ; preds = %3
  %7 = tail call i32 @portalScreenCastSelectSources(ptr noundef %0)
  %.not11 = icmp eq i32 %7, 0
  br i1 %.not11, label %8, label %9

8:                                                ; preds = %6
  tail call void (ptr, ...) @debug_screencast(ptr noundef nonnull @.str.58, ptr noundef nonnull @__func__.getPipewireFd, i32 noundef 878, ptr noundef null) #9
  br label %20

9:                                                ; preds = %6
  %10 = tail call i32 @portalScreenCastStart(ptr noundef %0)
  tail call void (ptr, ...) @debug_screencast(ptr noundef nonnull @.str.59, ptr noundef nonnull @__func__.getPipewireFd, i32 noundef 883, i32 noundef %10) #9
  %.not12 = icmp eq i32 %10, 0
  br i1 %.not12, label %12, label %11

11:                                               ; preds = %9
  tail call void (ptr, ...) @debug_screencast(ptr noundef nonnull @.str.60, ptr noundef nonnull @__func__.getPipewireFd, i32 noundef 885, ptr noundef null) #9
  br label %20

12:                                               ; preds = %9
  %13 = tail call i32 @checkCanCaptureAllRequiredScreens(ptr noundef %1, i32 noundef %2)
  %.not13 = icmp eq i32 %13, 0
  br i1 %.not13, label %14, label %15

14:                                               ; preds = %12
  tail call void (ptr, ...) @debug_screencast(ptr noundef nonnull @.str.61, ptr noundef nonnull @__func__.getPipewireFd, i32 noundef 892, ptr noundef null) #9
  br label %20

15:                                               ; preds = %12
  tail call void (ptr, ...) @debug_screencast(ptr noundef nonnull @.str.62, ptr noundef nonnull @__func__.getPipewireFd, i32 noundef 897, ptr noundef null) #9
  %16 = tail call i32 @portalScreenCastOpenPipewireRemote()
  %17 = icmp slt i32 %16, 0
  br i1 %17, label %18, label %19

18:                                               ; preds = %15
  tail call void (ptr, ...) @debug_screencast(ptr noundef nonnull @.str.63, ptr noundef nonnull @__func__.getPipewireFd, i32 noundef 901, ptr noundef null) #9
  br label %19

19:                                               ; preds = %18, %15
  tail call void (ptr, ...) @debug_screencast(ptr noundef nonnull @.str.64, ptr noundef nonnull @__func__.getPipewireFd, i32 noundef 904, i32 noundef %16) #9
  br label %20

20:                                               ; preds = %19, %14, %11, %8, %5
  %.0 = phi i32 [ %10, %11 ], [ %16, %19 ], [ -12, %14 ], [ -1, %8 ], [ -1, %5 ]
  ret i32 %.0
}